target datalayout = "e-m:e-p270:32:32-p271:32:32-p272:64:64-i64:64-i128:128-f80:128-n8:16:32:64-S128"
target triple = "x86_64-pc-linux-gnu"

%struct._wmem_tree_key_t = type { i32, ptr }

; Function Attrs: null_pointer_is_valid sspstrong uwtable
define internal ptr @wmem_tree_lookup32_array_helper(ptr noundef %0, ptr noundef %1, ptr noundef %2) #0 {
  %4 = alloca ptr, align 8
  %5 = alloca ptr, align 8
  %6 = alloca ptr, align 8
  %7 = alloca ptr, align 8
  %8 = alloca ptr, align 8
  %9 = alloca ptr, align 8
  %10 = alloca i32, align 4
  %11 = alloca i32, align 4
  %12 = alloca i32, align 4
  store ptr %0, ptr %5, align 8
  store ptr %1, ptr %6, align 8
  store ptr %2, ptr %7, align 8
  call void @llvm.lifetime.start.p0(i64 8, ptr %8) #6
  store ptr null, ptr %8, align 8
  call void @llvm.lifetime.start.p0(i64 8, ptr %9) #6
  call void @llvm.lifetime.start.p0(i64 4, ptr %10) #6
  call void @llvm.lifetime.start.p0(i64 4, ptr %11) #6
  store i32 0, ptr %11, align 4
  %13 = load ptr, ptr %5, align 8
  %14 = icmp ne ptr %13, null
  br i1 %14, label %15, label %18

15:                                               ; preds = %3
  %16 = load ptr, ptr %6, align 8
  %17 = icmp ne ptr %16, null
  br i1 %17, label %19, label %18

18:                                               ; preds = %15, %3
  store ptr null, ptr %4, align 8
  store i32 1, ptr %12, align 4
  br label %70

19:                                               ; preds = %15
  %20 = load ptr, ptr %6, align 8
  store ptr %20, ptr %9, align 8
  br label %21

21:                                               ; preds = %59, %19
  %22 = load ptr, ptr %9, align 8
  %23 = getelementptr inbounds nuw %struct._wmem_tree_key_t, ptr %22, i32 0, i32 0
  %24 = load i32, ptr %23, align 8
  %25 = icmp ugt i32 %24, 0
  br i1 %25, label %26, label %62

26:                                               ; preds = %21
  store i32 0, ptr %10, align 4
  br label %27

27:                                               ; preds = %55, %26
  %28 = load i32, ptr %10, align 4
  %29 = load ptr, ptr %9, align 8
  %30 = getelementptr inbounds nuw %struct._wmem_tree_key_t, ptr %29, i32 0, i32 0
  %31 = load i32, ptr %30, align 8
  %32 = icmp ult i32 %28, %31
  br i1 %32, label %33, label %58

33:                                               ; preds = %27
  %34 = load ptr, ptr %8, align 8
  %35 = icmp ne ptr %34, null
  br i1 %35, label %38, label %36

36:                                               ; preds = %33
  %37 = load ptr, ptr %5, align 8
  store ptr %37, ptr %8, align 8
  br label %47

38:                                               ; preds = %33
  %39 = load ptr, ptr %7, align 8
  %40 = load ptr, ptr %8, align 8
  %41 = load i32, ptr %11, align 4
  %42 = call ptr %39(ptr noundef %40, i32 noundef %41)
  store ptr %42, ptr %8, align 8
  %43 = load ptr, ptr %8, align 8
  %44 = icmp ne ptr %43, null
  br i1 %44, label %46, label %45

45:                                               ; preds = %38
  store ptr null, ptr %4, align 8
  store i32 1, ptr %12, align 4
  br label %70

46:                                               ; preds = %38
  br label %47

47:                                               ; preds = %46, %36
  %48 = load ptr, ptr %9, align 8
  %49 = getelementptr inbounds nuw %struct._wmem_tree_key_t, ptr %48, i32 0, i32 1
  %50 = load ptr, ptr %49, align 8
  %51 = load i32, ptr %10, align 4
  %52 = zext i32 %51 to i64
  %53 = getelementptr i32, ptr %50, i64 %52
  %54 = load i32, ptr %53, align 4
  store i32 %54, ptr %11, align 4
  br label %55

55:                                               ; preds = %47
  %56 = load i32, ptr %10, align 4
  %57 = add i32 %56, 1
  store i32 %57, ptr %10, align 4
  br label %27, !llvm.loop !20

58:                                               ; preds = %27
  br label %59

59:                                               ; preds = %58
  %60 = load ptr, ptr %9, align 8
  %61 = getelementptr %struct._wmem_tree_key_t, ptr %60, i32 1
  store ptr %61, ptr %9, align 8
  br label %21, !llvm.loop !21

62:                                               ; preds = %21
  br label %63

63:                                               ; preds = %62
  br label %64

64:                                               ; preds = %63
  br label %65

65:                                               ; preds = %64
  %66 = load ptr, ptr %7, align 8
  %67 = load ptr, ptr %8, align 8
  %68 = load i32, ptr %11, align 4
  %69 = call ptr %66(ptr noundef %67, i32 noundef %68)
  store ptr %69, ptr %4, align 8
  store i32 1, ptr %12, align 4
  br label %70

70:                                               ; preds = %65, %45, %18
  call void @llvm.lifetime.end.p0(i64 4, ptr %11) #6
  call void @llvm.lifetime.end.p0(i64 4, ptr %10) #6
  call void @llvm.lifetime.end.p0(i64 8, ptr %9) #6
  call void @llvm.lifetime.end.p0(i64 8, ptr %8) #6
  %71 = load ptr, ptr %4, align 8
  ret ptr %71
}

; Function Attrs: null_pointer_is_valid sspstrong uwtable
define ptr @wmem_tree_lookup32_array(ptr noundef %0, ptr noundef %1) #0 {
  %3 = alloca ptr, align 8
  %4 = alloca ptr, align 8
  store ptr %0, ptr %3, align 8
  store ptr %1, ptr %4, align 8
  %5 = load ptr, ptr %3, align 8
  %6 = load ptr, ptr %4, align 8
  %7 = call ptr @wmem_tree_lookup32_array_helper(ptr noundef %5, ptr noundef %6, ptr noundef @wmem_tree_lookup32)
  ret ptr %7
}