; Function Attrs: nofree norecurse nosync nounwind null_pointer_is_valid sspstrong memory(read, inaccessiblemem: none) uwtable
define ptr @wmem_tree_lookup32_array(ptr noundef readonly captures(address) %0, ptr noundef readonly captures(address_is_null) %1) local_unnamed_addr #6 {
  %3 = icmp ne ptr %0, null
  %4 = icmp ne ptr %1, null
  %or.cond.i = and i1 %3, %4
  br i1 %or.cond.i, label %.preheader30.i, label %wmem_tree_lookup32_array_helper.exit

.preheader30.i:                                   ; preds = %2
  %5 = load i32, ptr %1, align 8
  %.not39.i = icmp eq i32 %5, 0
  br i1 %.not39.i, label %wmem_tree_lookup32_array_helper.exit, label %.lr.ph.i

.lr.ph.i:                                         ; preds = %.preheader30.i, %._crit_edge.i
  %.pre.i = phi i32 [ %27, %._crit_edge.i ], [ %5, %.preheader30.i ]
  %.042.i = phi i32 [ %24, %._crit_edge.i ], [ 0, %.preheader30.i ]
  %.02141.i = phi ptr [ %26, %._crit_edge.i ], [ %1, %.preheader30.i ]
  %.02240.i = phi ptr [ %.2.i, %._crit_edge.i ], [ null, %.preheader30.i ]
  %6 = getelementptr inbounds nuw i8, ptr %.02141.i, i64 8
  %7 = zext i32 %.pre.i to i64
  br label %8

8:                                                ; preds = %._crit_edge48.i, %.lr.ph.i
  %indvars.iv.i = phi i64 [ 0, %.lr.ph.i ], [ %indvars.iv.next.i, %._crit_edge48.i ]
  %.137.i = phi i32 [ %.042.i, %.lr.ph.i ], [ %24, %._crit_edge48.i ]
  %.12335.i = phi ptr [ %.02240.i, %.lr.ph.i ], [ %.2.i, %._crit_edge48.i ]
  %.not28.i = icmp eq ptr %.12335.i, null
  br i1 %.not28.i, label %._crit_edge48.i, label %9

9:                                                ; preds = %8
  %10 = getelementptr inbounds nuw i8, ptr %.12335.i, i64 16
  %11 = load ptr, ptr %10, align 8
  %.not1718.i.i3 = icmp eq ptr %11, null
  br i1 %.not1718.i.i3, label %wmem_tree_lookup32_array_helper.exit, label %.lr.ph.i.i4

.lr.ph.i.i4:                                      ; preds = %9, %.sink.split.i.i9
  %.019.i.i5 = phi ptr [ %19, %.sink.split.i.i9 ], [ %11, %9 ]
  %12 = getelementptr inbounds nuw i8, ptr %.019.i.i5, i64 24
  %13 = load ptr, ptr %12, align 8
  %14 = ptrtoint ptr %13 to i64
  %15 = trunc i64 %14 to i32
  %16 = icmp eq i32 %.137.i, %15
  br i1 %16, label %wmem_tree_lookup32.exit12, label %.sink.split.i.i9

.sink.split.i.i9:                                 ; preds = %.lr.ph.i.i4
  %17 = icmp ult i32 %.137.i, %15
  %spec.select = select i1 %17, i64 8, i64 16
  %18 = getelementptr inbounds nuw i8, ptr %.019.i.i5, i64 %spec.select
  %19 = load ptr, ptr %18, align 8
  %.not17.i.i7 = icmp eq ptr %19, null
  br i1 %.not17.i.i7, label %wmem_tree_lookup32_array_helper.exit, label %.lr.ph.i.i4, !llvm.loop !13

wmem_tree_lookup32.exit12:                        ; preds = %.lr.ph.i.i4
  %20 = getelementptr inbounds nuw i8, ptr %.019.i.i5, i64 32
  %21 = load ptr, ptr %20, align 8
  %.not29.i = icmp eq ptr %21, null
  br i1 %.not29.i, label %wmem_tree_lookup32_array_helper.exit, label %._crit_edge48.i

._crit_edge48.i:                                  ; preds = %wmem_tree_lookup32.exit12, %8
  %.2.i = phi ptr [ %0, %8 ], [ %21, %wmem_tree_lookup32.exit12 ]
  %22 = load ptr, ptr %6, align 8
  %23 = getelementptr i32, ptr %22, i64 %indvars.iv.i
  %24 = load i32, ptr %23, align 4
  %indvars.iv.next.i = add nuw nsw i64 %indvars.iv.i, 1
  %25 = icmp samesign ult i64 %indvars.iv.next.i, %7
  br i1 %25, label %8, label %._crit_edge.i, !llvm.loop !22

._crit_edge.i:                                    ; preds = %._crit_edge48.i
  %26 = getelementptr i8, ptr %.02141.i, i64 16
  %27 = load i32, ptr %26, align 8
  %.not.i = icmp eq i32 %27, 0
  br i1 %.not.i, label %._crit_edge43.i, label %.lr.ph.i, !llvm.loop !23

._crit_edge43.i:                                  ; preds = %._crit_edge.i
  %28 = getelementptr inbounds nuw i8, ptr %.2.i, i64 16
  %29 = load ptr, ptr %28, align 8
  %.not1718.i.i = icmp eq ptr %29, null
  br i1 %.not1718.i.i, label %wmem_tree_lookup32_array_helper.exit, label %.lr.ph.i.i

.lr.ph.i.i:                                       ; preds = %._crit_edge43.i, %41
  %.019.i.i = phi ptr [ %.1.i.i, %41 ], [ %29, %._crit_edge43.i ]
  %30 = getelementptr inbounds nuw i8, ptr %.019.i.i, i64 24
  %31 = load ptr, ptr %30, align 8
  %32 = ptrtoint ptr %31 to i64
  %33 = trunc i64 %32 to i32
  %34 = icmp eq i32 %24, %33
  br i1 %34, label %wmem_tree_lookup32_node.exit.i, label %35

35:                                               ; preds = %.lr.ph.i.i
  %36 = icmp ult i32 %24, %33
  br i1 %36, label %.sink.split.i.i, label %37

37:                                               ; preds = %35
  %38 = icmp ugt i32 %24, %33
  br i1 %38, label %.sink.split.i.i, label %41

.sink.split.i.i:                                  ; preds = %37, %35
  %.sink22.i.i = phi i64 [ 8, %35 ], [ 16, %37 ]
  %39 = getelementptr inbounds nuw i8, ptr %.019.i.i, i64 %.sink22.i.i
  %40 = load ptr, ptr %39, align 8
  br label %41

41:                                               ; preds = %.sink.split.i.i, %37
  %.1.i.i = phi ptr [ %.019.i.i, %37 ], [ %40, %.sink.split.i.i ]
  %.not17.i.i = icmp eq ptr %.1.i.i, null
  br i1 %.not17.i.i, label %wmem_tree_lookup32_array_helper.exit, label %.lr.ph.i.i, !llvm.loop !13

wmem_tree_lookup32_node.exit.i:                   ; preds = %.lr.ph.i.i
  %42 = getelementptr inbounds nuw i8, ptr %.019.i.i, i64 32
  %43 = load ptr, ptr %42, align 8
  br label %wmem_tree_lookup32_array_helper.exit

wmem_tree_lookup32_array_helper.exit:             ; preds = %9, %wmem_tree_lookup32.exit12, %.sink.split.i.i9, %41, %.preheader30.i, %wmem_tree_lookup32_node.exit.i, %._crit_edge43.i, %2
  %.024.i = phi ptr [ null, %2 ], [ %43, %wmem_tree_lookup32_node.exit.i ], [ null, %._crit_edge43.i ], [ null, %.preheader30.i ], [ null, %41 ], [ null, %.sink.split.i.i9 ], [ null, %wmem_tree_lookup32.exit12 ], [ null, %9 ]
  ret ptr %.024.i
}